-----BEGIN PRIVATE KEY-----
MIICdwIBADANBgkqhkiG9w0BAQEFAASCAmEwggJdAgEAAoGBAMAfzP7nJq58ajiz
Gucaya6KLxWMOUrZIcH5HJvfP0JhwEHkJinGligII0fzKz1qfha7WlCcXEafWi/i
kZON8/upYUzc2OzcL+17ZB0N8RK5tBl2SZzn6tBjZ79YS4L+qULQzKvuLk9MZw5h
X6by6OcJAXgp6MYSdtZZzJIMNhEVAgMBAAECgYEAlJFC3a70G6P8JCJkYGg3o7AZ
3ujTeQzVbQFtXR/S9EtQ9+Msm8uEXCqG1eG2A0UxgfSZT5LKTJZ3kGX9OwRfsVoO
VKP2XtsuuyukoBJFijwiOVmfC5cK0siKX5L983u2SEjpnY7hnO4k2TXM89UIDobI
D9M0OU7Z14hynHI+I1UCQQDo7A/rcKdnZza6ftRhjDrdJMNOa1uMY5RXYiQEVS88
PghVUoXEudo7cSnCkWmH0utT+BelQeiFZn+5DAexrupXAkEA0yjsSnQP7HbErFuQ
W77FUICejuovhpBp8TFv62AWA0exHQ/YUTvcwfKWb772Fmjne3AEuQZGEwLWz5Pv
5cwUcwJBAJwRuOUQWgtOPHygCRzHwpV1UayVAQXDn50htHJ2xay/AARzxBA6XAEi
ZVHq72RELszX2rgvvmbMdF6AshMb2gcCQAxIQRZDkfmLHv13hfoQKqH4GUDu1jzZ
gZAJ9ByYxi8CqIasOUTgWoLdfWqajO3YxD4l0eCBQOoyLBR+4mFXcYkCQClQjZxL
e9Qtdxa91VcuIiAYxpEYLIeUVNjvKw0zIP4joNkv+zmF5eaV647VtUeM3mfutmnV
7FexwezQOi9PHOs=
-----END PRIVATE KEY-----
Certificate:
    Data:
        Version: 1 (0x0)
        Serial Number: 1048577 (0x100001)
    Signature Algorithm: md5WithRSAEncryption
        Issuer: O=Red, OU=cs,India/emailAddress=ravi@redpine.com, L=Hyd,Hyd, ST=AP, C=IN, CN=redpine,192.168.0.100,Ravi
        Validity
            Not Before: Nov 19 09:08:38 2014 GMT
            Not After : Nov 19 09:08:38 2015 GMT
        Subject: C=IN, ST=AP, O=Red, OU=cs,India, CN=redpine,192.168.0.100,Ravi
        Subject Public Key Info:
            Public Key Algorithm: rsaEncryption
                Public-Key: (1024 bit)
                Modulus:
                    00:c0:1f:cc:fe:e7:26:ae:7c:6a:38:b3:1a:e7:1a:
                    c9:ae:8a:2f:15:8c:39:4a:d9:21:c1:f9:1c:9b:df:
                    3f:42:61:c0:41:e4:26:29:c6:96:28:08:23:47:f3:
                    2b:3d:6a:7e:16:bb:5a:50:9c:5c:46:9f:5a:2f:e2:
                    91:93:8d:f3:fb:a9:61:4c:dc:d8:ec:dc:2f:ed:7b:
                    64:1d:0d:f1:12:b9:b4:19:76:49:9c:e7:ea:d0:63:
                    67:bf:58:4b:82:fe:a9:42:d0:cc:ab:ee:2e:4f:4c:
                    67:0e:61:5f:a6:f2:e8:e7:09:01:78:29:e8:c6:12:
                    76:d6:59:cc:92:0c:36:11:15
                Exponent: 65537 (0x10001)
    Signature Algorithm: md5WithRSAEncryption
         8c:03:83:5f:4a:84:a2:17:c8:c8:0b:59:ad:aa:16:59:c6:81:
         ba:3d:1d:d1:07:2a:07:8f:8f:87:58:aa:d3:f1:97:57:df:ce:
         0c:ce:16:f1:a5:70:ec:5e:7d:f7:d8:b4:29:20:be:7a:b2:0c:
         ff:4f:d3:9c:da:4f:f9:44:ca:9b:5c:99:64:23:a1:be:50:9a:
         c2:3e:7e:cb:c8:5b:59:2c:a3:a2:ce:99:10:95:80:fc:bd:4c:
         a3:1d:87:79:0f:22:d5:40:10:f0:78:48:58:71:94:b3:cd:a2:
         64:23:26:bc:e2:47:32:0a:57:3a:a1:2b:03:2a:d2:b5:3b:e9:
         2b:47
-----BEGIN CERTIFICATE-----
MIICZTCCAc4CAxAAATANBgkqhkiG9w0BAQQFADCBkzEMMAoGA1UEChMDUmVkMREw
DwYDVQQLEwhjcyxJbmRpYTEfMB0GCSqGSIb3DQEJARYQcmF2aUByZWRwaW5lLmNv
bTEQMA4GA1UEBxMHSHlkLEh5ZDELMAkGA1UECBMCQVAxCzAJBgNVBAYTAklOMSMw
IQYDVQQDExpyZWRwaW5lLDE5Mi4xNjguMC4xMDAsUmF2aTAeFw0xNDExMTkwOTA4
MzhaFw0xNTExMTkwOTA4MzhaMGAxCzAJBgNVBAYTAklOMQswCQYDVQQIEwJBUDEM
MAoGA1UEChMDUmVkMREwDwYDVQQLEwhjcyxJbmRpYTEjMCEGA1UEAxMacmVkcGlu
ZSwxOTIuMTY4LjAuMTAwLFJhdmkwgZ8wDQYJKoZIhvcNAQEBBQADgY0AMIGJAoGB
AMAfzP7nJq58ajizGucaya6KLxWMOUrZIcH5HJvfP0JhwEHkJinGligII0fzKz1q
fha7WlCcXEafWi/ikZON8/upYUzc2OzcL+17ZB0N8RK5tBl2SZzn6tBjZ79YS4L+
qULQzKvuLk9MZw5hX6by6OcJAXgp6MYSdtZZzJIMNhEVAgMBAAEwDQYJKoZIhvcN
AQEEBQADgYEAjAODX0qEohfIyAtZraoWWcaBuj0d0QcqB4+Ph1iq0/GXV9/ODM4W
8aVw7F5999i0KSC+erIM/0/TnNpP+UTKm1yZZCOhvlCawj5+y8hbWSyjos6ZEJWA
/L1Mox2HeQ8i1UAQ8HhIWHGUs82iZCMmvOJHMgpXOqErAyrStTvpK0c=
-----END CERTIFICATE-----
-----BEGIN CERTIFICATE-----
MIIDojCCAwugAwIBAgIJAKaZsvtAyJDjMA0GCSqGSIb3DQEBBAUAMIGTMQwwCgYD
VQQKEwNSZWQxETAPBgNVBAsTCGNzLEluZGlhMR8wHQYJKoZIhvcNAQkBFhByYXZp
QHJlZHBpbmUuY29tMRAwDgYDVQQHEwdIeWQsSHlkMQswCQYDVQQIEwJBUDELMAkG
A1UEBhMCSU4xIzAhBgNVBAMTGnJlZHBpbmUsMTkyLjE2OC4wLjEwMCxSYXZpMB4X
DTE0MTExOTA5MDc0N1oXDTE1MTExOTA5MDc0N1owgZMxDDAKBgNVBAoTA1JlZDER
MA8GA1UECxMIY3MsSW5kaWExHzAdBgkqhkiG9w0BCQEWEHJhdmlAcmVkcGluZS5j
b20xEDAOBgNVBAcTB0h5ZCxIeWQxCzAJBgNVBAgTAkFQMQswCQYDVQQGEwJJTjEj
MCEGA1UEAxMacmVkcGluZSwxOTIuMTY4LjAuMTAwLFJhdmkwgZ8wDQYJKoZIhvcN
AQEBBQADgY0AMIGJAoGBALI5pRA1f6vA2rQRiAKKnZWsEIomFf+kw2r3Z5QF52x7
laKTPhZGmQMili6JXPypi8GWTZSsr+H4N0pAvxUsrWEBgNmVkf3EVc5sktakzs4G
it3dYvzc0+k2QOrWUWBCI/wVogkPpIDWCwjQmFs3bCxAe832GYAl9RsfSbNipwXf
AgMBAAGjgfswgfgwDAYDVR0TBAUwAwEB/zAdBgNVHQ4EFgQUQ8SzikTD0gjwE/yL
w/YxgFCi1/EwgcgGA1UdIwSBwDCBvYAUQ8SzikTD0gjwE/yLw/YxgFCi1/GhgZmk
gZYwgZMxDDAKBgNVBAoTA1JlZDERMA8GA1UECxMIY3MsSW5kaWExHzAdBgkqhkiG
9w0BCQEWEHJhdmlAcmVkcGluZS5jb20xEDAOBgNVBAcTB0h5ZCxIeWQxCzAJBgNV
BAgTAkFQMQswCQYDVQQGEwJJTjEjMCEGA1UEAxMacmVkcGluZSwxOTIuMTY4LjAu
MTAwLFJhdmmCCQCmmbL7QMiQ4zANBgkqhkiG9w0BAQQFAAOBgQAqIKUyQGsSYcoA
RlmzcOnQzovMmf+bdPaax6r05LYUyDMqvK0jv1ntaKgxnL/8wpVWnM9nTacKADOI
V9JqLCvYYv3oTO9HdIgcNoJ+FEKpTP0Vmlo1lHYTBSmBwGK7eyS6u+sInvEInXXV
nfLwOAMTmi2yLy1FMucPI36VF85JcQ==
-----END CERTIFICATE-----
